target datalayout = "e-m:e-p270:32:32-p271:32:32-p272:64:64-i64:64-i128:128-f80:128-n8:16:32:64-S128"
target triple = "x86_64-unknown-linux-gnu"

%"struct.google::protobuf::MessageLite::ClassDataFull" = type { %"struct.google::protobuf::MessageLite::ClassData.base", ptr, ptr }
%"struct.google::protobuf::MessageLite::ClassData.base" = type <{ ptr, i32, i8 }>

; Function Attrs: mustprogress nounwind uwtable
define linkonce_odr hidden noundef nonnull align 8 dereferenceable(32) ptr @_ZNK6google8protobuf11MessageLite9ClassData4fullEv(ptr noundef nonnull align 8 dereferenceable(13) %this) #5 comdat align 2 {
entry:
  %this.addr = alloca ptr, align 8
  store ptr %this, ptr %this.addr, align 8
  %this1 = load ptr, ptr %this.addr, align 8
  ret ptr %this1
}

; Function Attrs: mustprogress uwtable
define void @_ZN6google8protobuf7Message9MergeFromERKS1_(ptr noundef nonnull align 8 dereferenceable(16) %this, ptr noundef nonnull align 8 dereferenceable(16) %from) #4 align 2 {
entry:
  %this.addr = alloca ptr, align 8
  %from.addr = alloca ptr, align 8
  %class_to = alloca ptr, align 8
  %class_from = alloca ptr, align 8
  store ptr %this, ptr %this.addr, align 8
  store ptr %from, ptr %from.addr, align 8
  %this1 = load ptr, ptr %this.addr, align 8
  %vtable = load ptr, ptr %this1, align 8
  %vfn = getelementptr inbounds ptr, ptr %vtable, i64 8
  %0 = load ptr, ptr %vfn, align 8
  %call = call noundef ptr %0(ptr noundef nonnull align 8 dereferenceable(16) %this1)
  store ptr %call, ptr %class_to, align 8
  %1 = load ptr, ptr %from.addr, align 8
  %vtable2 = load ptr, ptr %1, align 8
  %vfn3 = getelementptr inbounds ptr, ptr %vtable2, i64 8
  %2 = load ptr, ptr %vfn3, align 8
  %call4 = call noundef ptr %2(ptr noundef nonnull align 8 dereferenceable(16) %1)
  store ptr %call4, ptr %class_from, align 8
  %3 = load ptr, ptr %class_to, align 8
  %cmp = icmp eq ptr %3, null
  br i1 %cmp, label %if.then, label %lor.lhs.false

lor.lhs.false:                                    ; preds = %entry
  %4 = load ptr, ptr %class_to, align 8
  %5 = load ptr, ptr %class_from, align 8
  %cmp5 = icmp ne ptr %4, %5
  br i1 %cmp5, label %if.then, label %if.else

if.then:                                          ; preds = %lor.lhs.false, %entry
  %6 = load ptr, ptr %from.addr, align 8
  call void @_ZN6google8protobuf8internal13ReflectionOps5MergeERKNS0_7MessageEPS3_(ptr noundef nonnull align 8 dereferenceable(16) %6, ptr noundef %this1)
  br label %if.end

if.else:                                          ; preds = %lor.lhs.false
  %7 = load ptr, ptr %class_to, align 8
  %call6 = call noundef nonnull align 8 dereferenceable(32) ptr @_ZNK6google8protobuf11MessageLite9ClassData4fullEv(ptr noundef nonnull align 8 dereferenceable(13) %7)
  %merge_to_from = getelementptr inbounds %"struct.google::protobuf::MessageLite::ClassDataFull", ptr %call6, i32 0, i32 1
  %8 = load ptr, ptr %merge_to_from, align 8
  %9 = load ptr, ptr %from.addr, align 8
  call void %8(ptr noundef nonnull align 8 dereferenceable(16) %this1, ptr noundef nonnull align 8 dereferenceable(16) %9)
  br label %if.end

if.end:                                           ; preds = %if.else, %if.then
  ret void
}