; Function Attrs: mustprogress uwtable
define void @_ZN6google8protobuf7Message9MergeFromERKS1_(ptr noundef nonnull align 8 dereferenceable(16) %this, ptr noundef nonnull align 8 dereferenceable(16) %from) local_unnamed_addr #3 align 2 {
entry:
  %vtable = load ptr, ptr %this, align 8
  %vfn = getelementptr inbounds i8, ptr %vtable, i64 64
  %0 = load ptr, ptr %vfn, align 8
  %call = tail call noundef ptr %0(ptr noundef nonnull align 8 dereferenceable(16) %this)
  %vtable2 = load ptr, ptr %from, align 8
  %vfn3 = getelementptr inbounds i8, ptr %vtable2, i64 64
  %1 = load ptr, ptr %vfn3, align 8
  %call4 = tail call noundef ptr %1(ptr noundef nonnull align 8 dereferenceable(16) %from)
  %cmp = icmp ne ptr %call, null
  %cmp5.not = icmp eq ptr %call, %call4
  %or.cond = and i1 %cmp, %cmp5.not
  br i1 %or.cond, label %if.else, label %if.then

if.then:                                          ; preds = %entry
  tail call void @_ZN6google8protobuf8internal13ReflectionOps5MergeERKNS0_7MessageEPS3_(ptr noundef nonnull align 8 dereferenceable(16) %from, ptr noundef nonnull %this)
  br label %if.end

if.else:                                          ; preds = %entry
  %merge_to_from = getelementptr inbounds i8, ptr %call, i64 16
  %2 = load ptr, ptr %merge_to_from, align 8
  tail call void %2(ptr noundef nonnull align 8 dereferenceable(16) %this, ptr noundef nonnull align 8 dereferenceable(16) %from)
  br label %if.end

if.end:                                           ; preds = %if.else, %if.then
  ret void
}